Certificate:
    Data:
        Version: 3 (0x2)
        Serial Number: 1 (0x1)
        Signature Algorithm: sha1WithRSAEncryption
        Issuer: CN=neptune, C=NL, ST=Utrecht, L=Woerden, O=Pyro Co./emailAddress=pyro-ca@domain.invalid
        Validity
            Not Before: Jul 11 19:05:53 2009 GMT
            Not After : Apr  6 19:05:53 2012 GMT
        Subject: C=NL, ST=Utrecht, O=Pyro Co., OU=Client, CN=neptune/emailAddress=pyro-client@domain.invalid
        Subject Public Key Info:
            Public Key Algorithm: rsaEncryption
            RSA Public Key: (1024 bit)
                Modulus (1024 bit):
                    00:bd:29:33:cf:56:c9:49:70:9a:88:29:6f:ca:1b:
                    73:d8:92:a1:0f:41:c3:e3:3b:c9:4f:50:a7:f2:c8:
                    c6:6d:6a:fe:09:09:a0:76:43:94:52:b6:dd:f7:16:
                    b6:02:e3:bf:0f:2d:ee:fb:3a:b5:e4:20:08:59:3a:
                    97:d5:e4:ef:9e:3e:2d:03:02:c4:77:6d:71:a1:5a:
                    c2:0a:9d:2e:15:3f:22:2e:85:ee:3e:20:fb:28:2c:
                    0f:7e:17:bd:4f:73:ed:49:84:22:ae:18:e1:07:83:
                    d4:ef:7c:79:d9:2b:58:a2:71:c0:95:6c:2a:10:a0:
                    3f:19:42:a1:fb:81:5d:0e:49
                Exponent: 65537 (0x10001)
        X509v3 extensions:
            X509v3 Basic Constraints: 
                CA:FALSE
            X509v3 Subject Key Identifier: 
                EA:C2:5B:77:F0:F3:91:06:4A:97:16:0C:17:5B:DA:A8:FC:E3:C7:2E
            X509v3 Authority Key Identifier: 
                keyid:35:AF:B3:4A:08:32:09:65:06:CA:EF:1E:6F:5B:CC:51:20:ED:8A:0F
                DirName:/CN=neptune/C=NL/ST=Utrecht/L=Woerden/O=Pyro Co./emailAddress=pyro-ca@domain.invalid
                serial:8D:1A:C8:9A:98:71:0F:B1

            Netscape CA Revocation Url: 
                https://www.sial.org/ca-crl.pem
    Signature Algorithm: sha1WithRSAEncryption
        25:e0:13:6e:c7:cf:ac:2b:a8:ee:7e:de:bc:e8:1b:92:8d:32:
        26:38:c6:f0:e2:3d:33:91:c8:6e:56:98:bc:7f:33:06:ef:54:
        3e:67:46:ce:79:76:d5:dc:e7:20:12:a6:7a:74:6f:d5:e1:7d:
        8f:4a:72:cc:fa:02:3d:fc:d5:7d:5d:2d:0b:4c:8e:b1:8e:41:
        51:ec:db:48:bc:a1:36:9c:85:2f:2b:8f:2b:59:d3:5d:fb:ee:
        89:5d:6c:4b:35:4c:00:81:2d:32:88:19:f1:02:4b:cc:f9:5a:
        2e:ad:f3:07:73:81:c8:e7:14:65:3c:70:0d:32:00:b4:21:ef:
        f4:fa:22:ca:3d:0a:ea:c0:c1:6c:c8:f5:49:a5:bb:21:2d:68:
        53:8d:3b:3b:f8:a9:b1:f7:21:94:da:a0:f5:7a:7f:10:d1:74:
        36:00:50:5e:04:06:97:3b:7c:98:f5:ad:e2:0d:f9:9f:fd:36:
        9b:81:09:6c:c1:9b:b8:0d:27:f0:74:f0:e8:07:12:d5:58:08:
        78:05:09:b5:15:64:bb:6b:5d:be:c6:5a:35:da:c4:2a:8a:8b:
        62:fc:72:36:c9:ee:d2:b5:45:b9:a0:a6:72:b2:71:80:6d:d3:
        fc:49:81:00:09:a6:3f:c6:25:4a:32:7b:69:7f:59:48:e8:ab:
        ef:59:f3:36
-----BEGIN CERTIFICATE-----
MIIECDCCAvCgAwIBAgIBATANBgkqhkiG9w0BAQUFADB9MRAwDgYDVQQDEwduZXB0
dW5lMQswCQYDVQQGEwJOTDEQMA4GA1UECBMHVXRyZWNodDEQMA4GA1UEBxMHV29l
cmRlbjERMA8GA1UEChMIUHlybyBDby4xJTAjBgkqhkiG9w0BCQEWFnB5cm8tY2FA
ZG9tYWluLmludmFsaWQwHhcNMDkwNzExMTkwNTUzWhcNMTIwNDA2MTkwNTUzWjCB
gDELMAkGA1UEBhMCTkwxEDAOBgNVBAgTB1V0cmVjaHQxETAPBgNVBAoTCFB5cm8g
Q28uMQ8wDQYDVQQLEwZDbGllbnQxEDAOBgNVBAMTB25lcHR1bmUxKTAnBgkqhkiG
9w0BCQEWGnB5cm8tY2xpZW50QGRvbWFpbi5pbnZhbGlkMIGfMA0GCSqGSIb3DQEB
AQUAA4GNADCBiQKBgQC9KTPPVslJcJqIKW/KG3PYkqEPQcPjO8lPUKfyyMZtav4J
CaB2Q5RStt33FrYC478PLe77OrXkIAhZOpfV5O+ePi0DAsR3bXGhWsIKnS4VPyIu
he4+IPsoLA9+F71Pc+1JhCKuGOEHg9TvfHnZK1iiccCVbCoQoD8ZQqH7gV0OSQID
AQABo4IBETCCAQ0wCQYDVR0TBAIwADAdBgNVHQ4EFgQU6sJbd/DzkQZKlxYMF1va
qPzjxy4wgbAGA1UdIwSBqDCBpYAUNa+zSggyCWUGyu8eb1vMUSDtig+hgYGkfzB9
MRAwDgYDVQQDEwduZXB0dW5lMQswCQYDVQQGEwJOTDEQMA4GA1UECBMHVXRyZWNo
dDEQMA4GA1UEBxMHV29lcmRlbjERMA8GA1UEChMIUHlybyBDby4xJTAjBgkqhkiG
9w0BCQEWFnB5cm8tY2FAZG9tYWluLmludmFsaWSCCQCNGsiamHEPsTAuBglghkgB
hvhCAQQEIRYfaHR0cHM6Ly93d3cuc2lhbC5vcmcvY2EtY3JsLnBlbTANBgkqhkiG
9w0BAQUFAAOCAQEAJeATbsfPrCuo7n7evOgbko0yJjjG8OI9M5HIblaYvH8zBu9U
PmdGznl21dznIBKmenRv1eF9j0pyzPoCPfzVfV0tC0yOsY5BUezbSLyhNpyFLyuP
K1nTXfvuiV1sSzVMAIEtMogZ8QJLzPlaLq3zB3OByOcUZTxwDTIAtCHv9Poiyj0K
6sDBbMj1SaW7IS1oU407O/ipsfchlNqg9Xp/ENF0NgBQXgQGlzt8mPWt4g35n/02
m4EJbMGbuA0n8HTw6AcS1VgIeAUJtRVku2tdvsZaNdrEKoqLYvxyNsnu0rVFuaCm
crJxgG3T/EmBAAmmP8YlSjJ7aX9ZSOir71nzNg==
-----END CERTIFICATE-----
