Certificate:
    Data:
        Version: 3 (0x2)
        Serial Number: 2 (0x2)
        Signature Algorithm: sha1WithRSAEncryption
        Issuer: CN=neptune, C=NL, ST=Utrecht, L=Woerden, O=Pyro Co./emailAddress=pyro-ca@domain.invalid
        Validity
            Not Before: Jul 11 19:05:53 2009 GMT
            Not After : Apr  6 19:05:53 2012 GMT
        Subject: C=NL, ST=Utrecht, O=Pyro Co., OU=Server, CN=neptune/emailAddress=pyro-server@domain.invalid
        Subject Public Key Info:
            Public Key Algorithm: rsaEncryption
            RSA Public Key: (1024 bit)
                Modulus (1024 bit):
                    00:b2:0c:17:34:63:95:85:b2:6d:a9:21:67:af:f8:
                    09:1e:4c:84:2a:b3:b9:bb:5b:22:ab:53:7d:04:a5:
                    f6:16:9a:df:df:51:da:4c:10:35:f5:73:2d:2f:84:
                    aa:0a:58:21:8c:af:5c:32:48:da:97:03:cd:69:e3:
                    10:ce:6b:07:20:a3:78:8a:fa:94:c4:48:af:e7:7d:
                    47:6f:d0:95:59:e5:12:01:dd:9f:f5:cd:cc:bc:04:
                    8a:bc:0e:4a:6e:32:b1:9b:f5:0f:46:dc:65:4e:e1:
                    1b:0f:04:60:31:aa:41:22:8f:fd:df:c7:b5:c6:20:
                    d7:22:7b:7a:d2:b5:1d:0d:09
                Exponent: 65537 (0x10001)
        X509v3 extensions:
            X509v3 Basic Constraints: 
                CA:FALSE
            X509v3 Subject Key Identifier: 
                26:90:05:76:8A:09:92:22:86:28:FC:A0:5A:12:67:D1:E4:3D:1C:54
            X509v3 Authority Key Identifier: 
                keyid:35:AF:B3:4A:08:32:09:65:06:CA:EF:1E:6F:5B:CC:51:20:ED:8A:0F
                DirName:/CN=neptune/C=NL/ST=Utrecht/L=Woerden/O=Pyro Co./emailAddress=pyro-ca@domain.invalid
                serial:8D:1A:C8:9A:98:71:0F:B1

            Netscape CA Revocation Url: 
                https://www.sial.org/ca-crl.pem
    Signature Algorithm: sha1WithRSAEncryption
        ed:3b:1a:0b:2b:ed:88:37:66:3d:b2:5c:1e:5b:29:8b:57:27:
        ff:15:44:6b:7b:1a:10:23:dc:27:9a:92:ff:c4:e7:5a:6d:2a:
        e6:91:f0:32:92:6c:fa:a2:2a:36:77:4c:67:61:34:08:df:0f:
        f6:d6:ae:f7:c4:40:95:6d:a6:bf:6d:45:7b:d7:aa:55:6b:af:
        53:96:39:1b:2e:3a:45:84:bf:a1:9d:58:37:1c:de:0b:5f:8c:
        37:f0:04:a8:13:2f:6f:91:16:43:f7:fc:6d:c5:01:3d:9b:6c:
        6e:0a:d8:95:20:16:43:a5:22:16:d4:2f:ac:7f:fd:d5:29:87:
        41:c2:f2:d3:d0:45:d9:a0:d3:e9:f1:3d:0c:28:38:5c:55:de:
        a1:36:cc:01:22:4e:34:f0:af:9c:7f:e3:95:65:5f:1f:d5:64:
        24:81:7b:52:28:ad:cd:75:07:65:14:6f:29:a2:de:fb:1d:3d:
        b8:07:6d:cd:be:0f:a3:55:8a:df:d8:f6:02:68:79:d7:22:7d:
        b3:ea:64:7b:33:68:58:94:f9:b3:cf:1c:e8:9f:36:06:b3:99:
        da:89:04:44:22:e8:c8:0c:a3:9c:e4:71:0b:6e:7c:cd:71:61:
        ff:ae:1d:82:7b:44:8c:c9:ac:62:d4:b8:aa:9e:65:1b:84:21:
        86:10:3c:36
-----BEGIN CERTIFICATE-----
MIIECDCCAvCgAwIBAgIBAjANBgkqhkiG9w0BAQUFADB9MRAwDgYDVQQDEwduZXB0
dW5lMQswCQYDVQQGEwJOTDEQMA4GA1UECBMHVXRyZWNodDEQMA4GA1UEBxMHV29l
cmRlbjERMA8GA1UEChMIUHlybyBDby4xJTAjBgkqhkiG9w0BCQEWFnB5cm8tY2FA
ZG9tYWluLmludmFsaWQwHhcNMDkwNzExMTkwNTUzWhcNMTIwNDA2MTkwNTUzWjCB
gDELMAkGA1UEBhMCTkwxEDAOBgNVBAgTB1V0cmVjaHQxETAPBgNVBAoTCFB5cm8g
Q28uMQ8wDQYDVQQLEwZTZXJ2ZXIxEDAOBgNVBAMTB25lcHR1bmUxKTAnBgkqhkiG
9w0BCQEWGnB5cm8tc2VydmVyQGRvbWFpbi5pbnZhbGlkMIGfMA0GCSqGSIb3DQEB
AQUAA4GNADCBiQKBgQCyDBc0Y5WFsm2pIWev+AkeTIQqs7m7WyKrU30EpfYWmt/f
UdpMEDX1cy0vhKoKWCGMr1wySNqXA81p4xDOawcgo3iK+pTESK/nfUdv0JVZ5RIB
3Z/1zcy8BIq8DkpuMrGb9Q9G3GVO4RsPBGAxqkEij/3fx7XGINcie3rStR0NCQID
AQABo4IBETCCAQ0wCQYDVR0TBAIwADAdBgNVHQ4EFgQUJpAFdooJkiKGKPygWhJn
0eQ9HFQwgbAGA1UdIwSBqDCBpYAUNa+zSggyCWUGyu8eb1vMUSDtig+hgYGkfzB9
MRAwDgYDVQQDEwduZXB0dW5lMQswCQYDVQQGEwJOTDEQMA4GA1UECBMHVXRyZWNo
dDEQMA4GA1UEBxMHV29lcmRlbjERMA8GA1UEChMIUHlybyBDby4xJTAjBgkqhkiG
9w0BCQEWFnB5cm8tY2FAZG9tYWluLmludmFsaWSCCQCNGsiamHEPsTAuBglghkgB
hvhCAQQEIRYfaHR0cHM6Ly93d3cuc2lhbC5vcmcvY2EtY3JsLnBlbTANBgkqhkiG
9w0BAQUFAAOCAQEA7TsaCyvtiDdmPbJcHlspi1cn/xVEa3saECPcJ5qS/8TnWm0q
5pHwMpJs+qIqNndMZ2E0CN8P9tau98RAlW2mv21Fe9eqVWuvU5Y5Gy46RYS/oZ1Y
NxzeC1+MN/AEqBMvb5EWQ/f8bcUBPZtsbgrYlSAWQ6UiFtQvrH/91SmHQcLy09BF
2aDT6fE9DCg4XFXeoTbMASJONPCvnH/jlWVfH9VkJIF7UiitzXUHZRRvKaLe+x09
uAdtzb4Po1WK39j2Amh51yJ9s+pkezNoWJT5s88c6J82BrOZ2okERCLoyAyjnORx
C258zXFh/64dgntEjMmsYtS4qp5lG4QhhhA8Ng==
-----END CERTIFICATE-----
